SF:/home/runner/work/busbar-sf-utam/busbar-sf-utam/utam-core/src/elements/base.rs
FN:213,_RNCNCNCNvMNtNtCsi6qGN9LOuTf_9utam_core8elements4baseNtB8_11BaseElement16wait_for_absence000Bc_
FN:230,_RNCNCNCNvMNtNtCsi6qGN9LOuTf_9utam_core8elements4baseNtB8_11BaseElement16wait_for_enabled000Bc_
FN:176,_RNCNCNCNvMNtNtCsi6qGN9LOuTf_9utam_core8elements4baseNtB8_11BaseElement16wait_for_visible000Bc_
FN:193,_RNCNCNCNvMNtNtCsi6qGN9LOuTf_9utam_core8elements4baseNtB8_11BaseElement18wait_for_invisible000Bc_
FN:120,_RNCNCNvMNtNtCsi6qGN9LOuTf_9utam_core8elements4baseNtB6_11BaseElement15get_shadow_root00Ba_
FN:219,_RNCNCNvMNtNtCsi6qGN9LOuTf_9utam_core8elements4baseNtB6_11BaseElement16wait_for_absence00Ba_
FN:236,_RNCNCNvMNtNtCsi6qGN9LOuTf_9utam_core8elements4baseNtB6_11BaseElement16wait_for_enabled00Ba_
FN:182,_RNCNCNvMNtNtCsi6qGN9LOuTf_9utam_core8elements4baseNtB6_11BaseElement16wait_for_visible00Ba_
FN:202,_RNCNCNvMNtNtCsi6qGN9LOuTf_9utam_core8elements4baseNtB6_11BaseElement18wait_for_invisible00Ba_
FN:81,_RNCNvMNtNtCsi6qGN9LOuTf_9utam_core8elements4baseNtB4_11BaseElement10is_enabled0B8_
FN:86,_RNCNvMNtNtCsi6qGN9LOuTf_9utam_core8elements4baseNtB4_11BaseElement10is_focused0B8_
FN:93,_RNCNvMNtNtCsi6qGN9LOuTf_9utam_core8elements4baseNtB4_11BaseElement10is_present0B8_
FN:108,_RNCNvMNtNtCsi6qGN9LOuTf_9utam_core8elements4baseNtB4_11BaseElement10is_visible0B8_
FN:48,_RNCNvMNtNtCsi6qGN9LOuTf_9utam_core8elements4baseNtB4_11BaseElement13get_attribute0B8_
FN:135,_RNCNvMNtNtCsi6qGN9LOuTf_9utam_core8elements4baseNtB4_11BaseElement14element_exists0B8_
FN:115,_RNCNvMNtNtCsi6qGN9LOuTf_9utam_core8elements4baseNtB4_11BaseElement15get_shadow_root0B8_
FN:127,_RNCNvMNtNtCsi6qGN9LOuTf_9utam_core8elements4baseNtB4_11BaseElement16contains_element0B8_
FN:210,_RNCNvMNtNtCsi6qGN9LOuTf_9utam_core8elements4baseNtB4_11BaseElement16wait_for_absence0B8_
FN:227,_RNCNvMNtNtCsi6qGN9LOuTf_9utam_core8elements4baseNtB4_11BaseElement16wait_for_enabled0B8_
FN:173,_RNCNvMNtNtCsi6qGN9LOuTf_9utam_core8elements4baseNtB4_11BaseElement16wait_for_visible0B8_
FN:190,_RNCNvMNtNtCsi6qGN9LOuTf_9utam_core8elements4baseNtB4_11BaseElement18wait_for_invisible0B8_
FN:53,_RNCNvMNtNtCsi6qGN9LOuTf_9utam_core8elements4baseNtB4_11BaseElement19get_class_attribute0B8_
FN:58,_RNCNvMNtNtCsi6qGN9LOuTf_9utam_core8elements4baseNtB4_11BaseElement22get_css_property_value0B8_
FN:148,_RNCNvMNtNtCsi6qGN9LOuTf_9utam_core8elements4baseNtB4_11BaseElement24element_exists_in_shadow0B8_
FN:63,_RNCNvMNtNtCsi6qGN9LOuTf_9utam_core8elements4baseNtB4_11BaseElement8get_rect0B8_
FN:41,_RNCNvMNtNtCsi6qGN9LOuTf_9utam_core8elements4baseNtB4_11BaseElement8get_text0B8_
FN:69,_RNCNvMNtNtCsi6qGN9LOuTf_9utam_core8elements4baseNtB4_11BaseElement9get_title0B8_
FN:74,_RNCNvMNtNtCsi6qGN9LOuTf_9utam_core8elements4baseNtB4_11BaseElement9get_value0B8_
FN:81,_RNvMNtNtCsi6qGN9LOuTf_9utam_core8elements4baseNtB2_11BaseElement10is_enabled
FN:86,_RNvMNtNtCsi6qGN9LOuTf_9utam_core8elements4baseNtB2_11BaseElement10is_focused
FN:93,_RNvMNtNtCsi6qGN9LOuTf_9utam_core8elements4baseNtB2_11BaseElement10is_present
FN:108,_RNvMNtNtCsi6qGN9LOuTf_9utam_core8elements4baseNtB2_11BaseElement10is_visible
FN:48,_RNvMNtNtCsi6qGN9LOuTf_9utam_core8elements4baseNtB2_11BaseElement13get_attribute
FN:135,_RNvMNtNtCsi6qGN9LOuTf_9utam_core8elements4baseNtB2_11BaseElement14element_exists
FN:115,_RNvMNtNtCsi6qGN9LOuTf_9utam_core8elements4baseNtB2_11BaseElement15get_shadow_root
FN:127,_RNvMNtNtCsi6qGN9LOuTf_9utam_core8elements4baseNtB2_11BaseElement16contains_element
FN:210,_RNvMNtNtCsi6qGN9LOuTf_9utam_core8elements4baseNtB2_11BaseElement16wait_for_absence
FN:227,_RNvMNtNtCsi6qGN9LOuTf_9utam_core8elements4baseNtB2_11BaseElement16wait_for_enabled
FN:173,_RNvMNtNtCsi6qGN9LOuTf_9utam_core8elements4baseNtB2_11BaseElement16wait_for_visible
FN:190,_RNvMNtNtCsi6qGN9LOuTf_9utam_core8elements4baseNtB2_11BaseElement18wait_for_invisible
FN:53,_RNvMNtNtCsi6qGN9LOuTf_9utam_core8elements4baseNtB2_11BaseElement19get_class_attribute
FN:58,_RNvMNtNtCsi6qGN9LOuTf_9utam_core8elements4baseNtB2_11BaseElement22get_css_property_value
FN:148,_RNvMNtNtCsi6qGN9LOuTf_9utam_core8elements4baseNtB2_11BaseElement24element_exists_in_shadow
FN:29,_RNvMNtNtCsi6qGN9LOuTf_9utam_core8elements4baseNtB2_11BaseElement3new
FN:34,_RNvMNtNtCsi6qGN9LOuTf_9utam_core8elements4baseNtB2_11BaseElement5inner
FN:63,_RNvMNtNtCsi6qGN9LOuTf_9utam_core8elements4baseNtB2_11BaseElement8get_rect
FN:41,_RNvMNtNtCsi6qGN9LOuTf_9utam_core8elements4baseNtB2_11BaseElement8get_text
FN:69,_RNvMNtNtCsi6qGN9LOuTf_9utam_core8elements4baseNtB2_11BaseElement9get_title
FN:74,_RNvMNtNtCsi6qGN9LOuTf_9utam_core8elements4baseNtB2_11BaseElement9get_value
FN:246,_RNvXs1_NtNtCsi6qGN9LOuTf_9utam_core8elements4baseNtB5_11BaseElementNtNtNtB9_6traits10actionable10Actionable5inner
FNDA:0,_RNCNCNCNvMNtNtCsi6qGN9LOuTf_9utam_core8elements4baseNtB8_11BaseElement16wait_for_absence000Bc_
FNDA:0,_RNCNCNCNvMNtNtCsi6qGN9LOuTf_9utam_core8elements4baseNtB8_11BaseElement16wait_for_enabled000Bc_
FNDA:0,_RNCNCNCNvMNtNtCsi6qGN9LOuTf_9utam_core8elements4baseNtB8_11BaseElement16wait_for_visible000Bc_
FNDA:0,_RNCNCNCNvMNtNtCsi6qGN9LOuTf_9utam_core8elements4baseNtB8_11BaseElement18wait_for_invisible000Bc_
FNDA:0,_RNCNCNvMNtNtCsi6qGN9LOuTf_9utam_core8elements4baseNtB6_11BaseElement15get_shadow_root00Ba_
FNDA:0,_RNCNCNvMNtNtCsi6qGN9LOuTf_9utam_core8elements4baseNtB6_11BaseElement16wait_for_absence00Ba_
FNDA:0,_RNCNCNvMNtNtCsi6qGN9LOuTf_9utam_core8elements4baseNtB6_11BaseElement16wait_for_enabled00Ba_
FNDA:0,_RNCNCNvMNtNtCsi6qGN9LOuTf_9utam_core8elements4baseNtB6_11BaseElement16wait_for_visible00Ba_
FNDA:0,_RNCNCNvMNtNtCsi6qGN9LOuTf_9utam_core8elements4baseNtB6_11BaseElement18wait_for_invisible00Ba_
FNDA:0,_RNCNvMNtNtCsi6qGN9LOuTf_9utam_core8elements4baseNtB4_11BaseElement10is_enabled0B8_
FNDA:0,_RNCNvMNtNtCsi6qGN9LOuTf_9utam_core8elements4baseNtB4_11BaseElement10is_focused0B8_
FNDA:0,_RNCNvMNtNtCsi6qGN9LOuTf_9utam_core8elements4baseNtB4_11BaseElement10is_present0B8_
FNDA:0,_RNCNvMNtNtCsi6qGN9LOuTf_9utam_core8elements4baseNtB4_11BaseElement10is_visible0B8_
FNDA:0,_RNCNvMNtNtCsi6qGN9LOuTf_9utam_core8elements4baseNtB4_11BaseElement13get_attribute0B8_
FNDA:0,_RNCNvMNtNtCsi6qGN9LOuTf_9utam_core8elements4baseNtB4_11BaseElement14element_exists0B8_
FNDA:0,_RNCNvMNtNtCsi6qGN9LOuTf_9utam_core8elements4baseNtB4_11BaseElement15get_shadow_root0B8_
FNDA:0,_RNCNvMNtNtCsi6qGN9LOuTf_9utam_core8elements4baseNtB4_11BaseElement16contains_element0B8_
FNDA:0,_RNCNvMNtNtCsi6qGN9LOuTf_9utam_core8elements4baseNtB4_11BaseElement16wait_for_absence0B8_
FNDA:0,_RNCNvMNtNtCsi6qGN9LOuTf_9utam_core8elements4baseNtB4_11BaseElement16wait_for_enabled0B8_
FNDA:0,_RNCNvMNtNtCsi6qGN9LOuTf_9utam_core8elements4baseNtB4_11BaseElement16wait_for_visible0B8_
FNDA:0,_RNCNvMNtNtCsi6qGN9LOuTf_9utam_core8elements4baseNtB4_11BaseElement18wait_for_invisible0B8_
FNDA:0,_RNCNvMNtNtCsi6qGN9LOuTf_9utam_core8elements4baseNtB4_11BaseElement19get_class_attribute0B8_
FNDA:0,_RNCNvMNtNtCsi6qGN9LOuTf_9utam_core8elements4baseNtB4_11BaseElement22get_css_property_value0B8_
FNDA:0,_RNCNvMNtNtCsi6qGN9LOuTf_9utam_core8elements4baseNtB4_11BaseElement24element_exists_in_shadow0B8_
FNDA:0,_RNCNvMNtNtCsi6qGN9LOuTf_9utam_core8elements4baseNtB4_11BaseElement8get_rect0B8_
FNDA:0,_RNCNvMNtNtCsi6qGN9LOuTf_9utam_core8elements4baseNtB4_11BaseElement8get_text0B8_
FNDA:0,_RNCNvMNtNtCsi6qGN9LOuTf_9utam_core8elements4baseNtB4_11BaseElement9get_title0B8_
FNDA:0,_RNCNvMNtNtCsi6qGN9LOuTf_9utam_core8elements4baseNtB4_11BaseElement9get_value0B8_
FNDA:0,_RNvMNtNtCsi6qGN9LOuTf_9utam_core8elements4baseNtB2_11BaseElement10is_enabled
FNDA:0,_RNvMNtNtCsi6qGN9LOuTf_9utam_core8elements4baseNtB2_11BaseElement10is_focused
FNDA:0,_RNvMNtNtCsi6qGN9LOuTf_9utam_core8elements4baseNtB2_11BaseElement10is_present
FNDA:0,_RNvMNtNtCsi6qGN9LOuTf_9utam_core8elements4baseNtB2_11BaseElement10is_visible
FNDA:0,_RNvMNtNtCsi6qGN9LOuTf_9utam_core8elements4baseNtB2_11BaseElement13get_attribute
FNDA:0,_RNvMNtNtCsi6qGN9LOuTf_9utam_core8elements4baseNtB2_11BaseElement14element_exists
FNDA:0,_RNvMNtNtCsi6qGN9LOuTf_9utam_core8elements4baseNtB2_11BaseElement15get_shadow_root
FNDA:0,_RNvMNtNtCsi6qGN9LOuTf_9utam_core8elements4baseNtB2_11BaseElement16contains_element
FNDA:0,_RNvMNtNtCsi6qGN9LOuTf_9utam_core8elements4baseNtB2_11BaseElement16wait_for_absence
FNDA:0,_RNvMNtNtCsi6qGN9LOuTf_9utam_core8elements4baseNtB2_11BaseElement16wait_for_enabled
FNDA:0,_RNvMNtNtCsi6qGN9LOuTf_9utam_core8elements4baseNtB2_11BaseElement16wait_for_visible
FNDA:0,_RNvMNtNtCsi6qGN9LOuTf_9utam_core8elements4baseNtB2_11BaseElement18wait_for_invisible
FNDA:0,_RNvMNtNtCsi6qGN9LOuTf_9utam_core8elements4baseNtB2_11BaseElement19get_class_attribute
FNDA:0,_RNvMNtNtCsi6qGN9LOuTf_9utam_core8elements4baseNtB2_11BaseElement22get_css_property_value
FNDA:0,_RNvMNtNtCsi6qGN9LOuTf_9utam_core8elements4baseNtB2_11BaseElement24element_exists_in_shadow
FNDA:0,_RNvMNtNtCsi6qGN9LOuTf_9utam_core8elements4baseNtB2_11BaseElement3new
FNDA:0,_RNvMNtNtCsi6qGN9LOuTf_9utam_core8elements4baseNtB2_11BaseElement5inner
FNDA:0,_RNvMNtNtCsi6qGN9LOuTf_9utam_core8elements4baseNtB2_11BaseElement8get_rect
FNDA:0,_RNvMNtNtCsi6qGN9LOuTf_9utam_core8elements4baseNtB2_11BaseElement8get_text
FNDA:0,_RNvMNtNtCsi6qGN9LOuTf_9utam_core8elements4baseNtB2_11BaseElement9get_title
FNDA:0,_RNvMNtNtCsi6qGN9LOuTf_9utam_core8elements4baseNtB2_11BaseElement9get_value
FNDA:0,_RNvXs1_NtNtCsi6qGN9LOuTf_9utam_core8elements4baseNtB5_11BaseElementNtNtNtB9_6traits10actionable10Actionable5inner
FNF:50
FNH:0
DA:29,0
DA:30,0
DA:31,0
DA:34,0
DA:35,0
DA:36,0
DA:41,0
DA:42,0
DA:43,0
DA:48,0
DA:49,0
DA:50,0
DA:53,0
DA:54,0
DA:55,0
DA:58,0
DA:59,0
DA:60,0
DA:63,0
DA:64,0
DA:65,0
DA:66,0
DA:69,0
DA:70,0
DA:71,0
DA:74,0
DA:75,0
DA:76,0
DA:81,0
DA:82,0
DA:83,0
DA:86,0
DA:87,0
DA:88,0
DA:89,0
DA:90,0
DA:93,0
DA:94,0
DA:95,0
DA:96,0
DA:97,0
DA:98,0
DA:99,0
DA:101,0
DA:105,0
DA:108,0
DA:109,0
DA:110,0
DA:115,0
DA:116,0
DA:117,0
DA:118,0
DA:119,0
DA:120,0
DA:121,0
DA:122,0
DA:127,0
DA:128,0
DA:129,0
DA:131,0
DA:133,0
DA:135,0
DA:136,0
DA:137,0
DA:138,0
DA:139,0
DA:140,0
DA:142,0
DA:146,0
DA:148,0
DA:149,0
DA:150,0
DA:151,0
DA:152,0
DA:153,0
DA:154,0
DA:156,0
DA:160,0
DA:161,0
DA:162,0
DA:164,0
DA:168,0
DA:173,0
DA:174,0
DA:175,0
DA:176,0
DA:177,0
DA:178,0
DA:180,0
DA:182,0
DA:183,0
DA:184,0
DA:186,0
DA:187,0
DA:190,0
DA:191,0
DA:192,0
DA:193,0
DA:194,0
DA:195,0
DA:196,0
DA:197,0
DA:198,0
DA:200,0
DA:202,0
DA:203,0
DA:204,0
DA:206,0
DA:207,0
DA:210,0
DA:211,0
DA:212,0
DA:213,0
DA:214,0
DA:215,0
DA:217,0
DA:219,0
DA:220,0
DA:221,0
DA:223,0
DA:224,0
DA:227,0
DA:228,0
DA:229,0
DA:230,0
DA:231,0
DA:232,0
DA:234,0
DA:236,0
DA:237,0
DA:238,0
DA:240,0
DA:241,0
DA:246,0
DA:247,0
DA:248,0
BRF:0
BRH:0
LF:160
LH:0
end_of_record
SF:/home/runner/work/busbar-sf-utam/busbar-sf-utam/utam-core/src/elements/clickable.rs
FN:17,_RNvMNtNtCsi6qGN9LOuTf_9utam_core8elements9clickableNtB2_16ClickableElement3new
FN:22,_RNvMNtNtCsi6qGN9LOuTf_9utam_core8elements9clickableNtB2_16ClickableElement5inner
FN:29,_RNvXs1_NtNtCsi6qGN9LOuTf_9utam_core8elements9clickableNtB5_16ClickableElementNtNtNtB9_6traits10actionable10Actionable5inner
FNDA:0,_RNvMNtNtCsi6qGN9LOuTf_9utam_core8elements9clickableNtB2_16ClickableElement3new
FNDA:0,_RNvMNtNtCsi6qGN9LOuTf_9utam_core8elements9clickableNtB2_16ClickableElement5inner
FNDA:0,_RNvXs1_NtNtCsi6qGN9LOuTf_9utam_core8elements9clickableNtB5_16ClickableElementNtNtNtB9_6traits10actionable10Actionable5inner
FNF:3
FNH:0
DA:17,0
DA:18,0
DA:19,0
DA:22,0
DA:23,0
DA:24,0
DA:29,0
DA:30,0
DA:31,0
BRF:0
BRH:0
LF:9
LH:0
end_of_record
SF:/home/runner/work/busbar-sf-utam/busbar-sf-utam/utam-core/src/elements/container.rs
FN:85,_RINvMNtNtCsi6qGN9LOuTf_9utam_core8elements9containerINtB3_9ContainerpE7load_aspEB7_
FN:85,_RNCINvMNtNtCsi6qGN9LOuTf_9utam_core8elements9containerINtB5_9ContainerpE7load_aspE0B9_
FN:67,_RNCNCNCNvMNtNtCsi6qGN9LOuTf_9utam_core8elements9containerINtB8_9ContainerpE12find_element0s_00Bc_
FN:68,_RNCNCNCNvMNtNtCsi6qGN9LOuTf_9utam_core8elements9containerINtB8_9ContainerpE12find_element0s_0s_0Bc_
FN:60,_RNCNCNvMNtNtCsi6qGN9LOuTf_9utam_core8elements9containerINtB6_9ContainerpE12find_element00Ba_
FN:63,_RNCNCNvMNtNtCsi6qGN9LOuTf_9utam_core8elements9containerINtB6_9ContainerpE12find_element0s_0Ba_
FN:55,_RNCNvMNtNtCsi6qGN9LOuTf_9utam_core8elements9containerINtB4_9ContainerpE12find_element0B8_
FN:76,_RNCNvMNtNtCsi6qGN9LOuTf_9utam_core8elements9containerINtB4_9ContainerpE4load0B8_
FN:55,_RNvMNtNtCsi6qGN9LOuTf_9utam_core8elements9containerINtB2_9ContainerpE12find_elementB6_
FN:50,_RNvMNtNtCsi6qGN9LOuTf_9utam_core8elements9containerINtB2_9ContainerpE13with_selectorB6_
FN:45,_RNvMNtNtCsi6qGN9LOuTf_9utam_core8elements9containerINtB2_9ContainerpE3newB6_
FN:73,_RNvMNtNtCsi6qGN9LOuTf_9utam_core8elements9containerINtB2_9ContainerpE4loadB6_
FNDA:0,_RINvMNtNtCsi6qGN9LOuTf_9utam_core8elements9containerINtB3_9ContainerpE7load_aspEB7_
FNDA:0,_RNCINvMNtNtCsi6qGN9LOuTf_9utam_core8elements9containerINtB5_9ContainerpE7load_aspE0B9_
FNDA:0,_RNCNCNCNvMNtNtCsi6qGN9LOuTf_9utam_core8elements9containerINtB8_9ContainerpE12find_element0s_00Bc_
FNDA:0,_RNCNCNCNvMNtNtCsi6qGN9LOuTf_9utam_core8elements9containerINtB8_9ContainerpE12find_element0s_0s_0Bc_
FNDA:0,_RNCNCNvMNtNtCsi6qGN9LOuTf_9utam_core8elements9containerINtB6_9ContainerpE12find_element00Ba_
FNDA:0,_RNCNCNvMNtNtCsi6qGN9LOuTf_9utam_core8elements9containerINtB6_9ContainerpE12find_element0s_0Ba_
FNDA:0,_RNCNvMNtNtCsi6qGN9LOuTf_9utam_core8elements9containerINtB4_9ContainerpE12find_element0B8_
FNDA:0,_RNCNvMNtNtCsi6qGN9LOuTf_9utam_core8elements9containerINtB4_9ContainerpE4load0B8_
FNDA:0,_RNvMNtNtCsi6qGN9LOuTf_9utam_core8elements9containerINtB2_9ContainerpE12find_elementB6_
FNDA:0,_RNvMNtNtCsi6qGN9LOuTf_9utam_core8elements9containerINtB2_9ContainerpE13with_selectorB6_
FNDA:0,_RNvMNtNtCsi6qGN9LOuTf_9utam_core8elements9containerINtB2_9ContainerpE3newB6_
FNDA:0,_RNvMNtNtCsi6qGN9LOuTf_9utam_core8elements9containerINtB2_9ContainerpE4loadB6_
FNF:12
FNH:0
DA:45,0
DA:46,0
DA:47,0
DA:50,0
DA:51,0
DA:52,0
DA:53,0
DA:55,0
DA:56,0
DA:57,0
DA:58,0
DA:59,0
DA:60,0
DA:62,0
DA:63,0
DA:64,0
DA:65,0
DA:66,0
DA:67,0
DA:68,0
DA:69,0
DA:70,0
DA:73,0
DA:74,0
DA:75,0
DA:76,0
DA:77,0
DA:78,0
DA:79,0
DA:85,0
DA:86,0
DA:87,0
DA:88,0
BRF:0
BRH:0
LF:38
LH:0
end_of_record
SF:/home/runner/work/busbar-sf-utam/busbar-sf-utam/utam-core/src/elements/draggable.rs
FN:17,_RNvMNtNtCsi6qGN9LOuTf_9utam_core8elements9draggableNtB2_16DraggableElement3new
FN:22,_RNvMNtNtCsi6qGN9LOuTf_9utam_core8elements9draggableNtB2_16DraggableElement5inner
FN:29,_RNvXs1_NtNtCsi6qGN9LOuTf_9utam_core8elements9draggableNtB5_16DraggableElementNtNtNtB9_6traits10actionable10Actionable5inner
FNDA:0,_RNvMNtNtCsi6qGN9LOuTf_9utam_core8elements9draggableNtB2_16DraggableElement3new
FNDA:0,_RNvMNtNtCsi6qGN9LOuTf_9utam_core8elements9draggableNtB2_16DraggableElement5inner
FNDA:0,_RNvXs1_NtNtCsi6qGN9LOuTf_9utam_core8elements9draggableNtB5_16DraggableElementNtNtNtB9_6traits10actionable10Actionable5inner
FNF:3
FNH:0
DA:17,0
DA:18,0
DA:19,0
DA:22,0
DA:23,0
DA:24,0
DA:29,0
DA:30,0
DA:31,0
BRF:0
BRH:0
LF:9
LH:0
end_of_record
SF:/home/runner/work/busbar-sf-utam/busbar-sf-utam/utam-core/src/elements/editable.rs
FN:17,_RNvMNtNtCsi6qGN9LOuTf_9utam_core8elements8editableNtB2_15EditableElement3new
FN:22,_RNvMNtNtCsi6qGN9LOuTf_9utam_core8elements8editableNtB2_15EditableElement5inner
FN:29,_RNvXs1_NtNtCsi6qGN9LOuTf_9utam_core8elements8editableNtB5_15EditableElementNtNtNtB9_6traits10actionable10Actionable5inner
FNDA:0,_RNvMNtNtCsi6qGN9LOuTf_9utam_core8elements8editableNtB2_15EditableElement3new
FNDA:0,_RNvMNtNtCsi6qGN9LOuTf_9utam_core8elements8editableNtB2_15EditableElement5inner
FNDA:0,_RNvXs1_NtNtCsi6qGN9LOuTf_9utam_core8elements8editableNtB5_15EditableElementNtNtNtB9_6traits10actionable10Actionable5inner
FNF:3
FNH:0
DA:17,0
DA:18,0
DA:19,0
DA:22,0
DA:23,0
DA:24,0
DA:29,0
DA:30,0
DA:31,0
BRF:0
BRH:0
LF:9
LH:0
end_of_record
SF:/home/runner/work/busbar-sf-utam/busbar-sf-utam/utam-core/src/elements/frame.rs
FN:49,_RNCNvMNtNtCsi6qGN9LOuTf_9utam_core8elements5frameNtB4_12FrameElement5enter0B8_
FN:125,_RNCNvMs_NtNtCsi6qGN9LOuTf_9utam_core8elements5frameNtB6_12FrameContext4exit0Ba_
FN:109,_RNCNvMs_NtNtCsi6qGN9LOuTf_9utam_core8elements5frameNtB6_12FrameContext4find0Ba_
FN:149,_RNCNvXs0_NtNtCsi6qGN9LOuTf_9utam_core8elements5frameNtB7_12FrameContextNtNtNtCslH02haMvknO_4core3ops4drop4Drop4drop0Bb_
FN:21,_RNvMNtNtCsi6qGN9LOuTf_9utam_core8elements5frameNtB2_12FrameElement3new
FN:49,_RNvMNtNtCsi6qGN9LOuTf_9utam_core8elements5frameNtB2_12FrameElement5enter
FN:26,_RNvMNtNtCsi6qGN9LOuTf_9utam_core8elements5frameNtB2_12FrameElement5inner
FN:125,_RNvMs_NtNtCsi6qGN9LOuTf_9utam_core8elements5frameNtB4_12FrameContext4exit
FN:109,_RNvMs_NtNtCsi6qGN9LOuTf_9utam_core8elements5frameNtB4_12FrameContext4find
FN:183,_RNvNvNtNtNtCsi6qGN9LOuTf_9utam_core8elements5frame5testss_29test_frame_context_api_exists17__check_api_exists
FN:170,_RNvNvNtNtNtCsi6qGN9LOuTf_9utam_core8elements5frame5testss_34test_frame_element_has_correct_api17__check_api_exists
FN:136,_RNvXs0_NtNtCsi6qGN9LOuTf_9utam_core8elements5frameNtB5_12FrameContextNtNtNtCslH02haMvknO_4core3ops4drop4Drop4drop
FN:162,_RNvNtNtNtCsi6qGN9LOuTf_9utam_core8elements5frame5testss_22test_frame_element_new
FN:181,_RNvNtNtNtCsi6qGN9LOuTf_9utam_core8elements5frame5testss_29test_frame_context_api_exists
FN:168,_RNvNtNtNtCsi6qGN9LOuTf_9utam_core8elements5frame5testss_34test_frame_element_has_correct_api
FNDA:0,_RNCNvMNtNtCsi6qGN9LOuTf_9utam_core8elements5frameNtB4_12FrameElement5enter0B8_
FNDA:0,_RNCNvMs_NtNtCsi6qGN9LOuTf_9utam_core8elements5frameNtB6_12FrameContext4exit0Ba_
FNDA:0,_RNCNvMs_NtNtCsi6qGN9LOuTf_9utam_core8elements5frameNtB6_12FrameContext4find0Ba_
FNDA:0,_RNCNvXs0_NtNtCsi6qGN9LOuTf_9utam_core8elements5frameNtB7_12FrameContextNtNtNtCslH02haMvknO_4core3ops4drop4Drop4drop0Bb_
FNDA:0,_RNvMNtNtCsi6qGN9LOuTf_9utam_core8elements5frameNtB2_12FrameElement3new
FNDA:0,_RNvMNtNtCsi6qGN9LOuTf_9utam_core8elements5frameNtB2_12FrameElement5enter
FNDA:0,_RNvMNtNtCsi6qGN9LOuTf_9utam_core8elements5frameNtB2_12FrameElement5inner
FNDA:0,_RNvMs_NtNtCsi6qGN9LOuTf_9utam_core8elements5frameNtB4_12FrameContext4exit
FNDA:0,_RNvMs_NtNtCsi6qGN9LOuTf_9utam_core8elements5frameNtB4_12FrameContext4find
FNDA:0,_RNvNvNtNtNtCsi6qGN9LOuTf_9utam_core8elements5frame5testss_29test_frame_context_api_exists17__check_api_exists
FNDA:0,_RNvNvNtNtNtCsi6qGN9LOuTf_9utam_core8elements5frame5testss_34test_frame_element_has_correct_api17__check_api_exists
FNDA:0,_RNvXs0_NtNtCsi6qGN9LOuTf_9utam_core8elements5frameNtB5_12FrameContextNtNtNtCslH02haMvknO_4core3ops4drop4Drop4drop
FNDA:1,_RNvNtNtNtCsi6qGN9LOuTf_9utam_core8elements5frame5testss_22test_frame_element_new
FNDA:1,_RNvNtNtNtCsi6qGN9LOuTf_9utam_core8elements5frame5testss_29test_frame_context_api_exists
FNDA:1,_RNvNtNtNtCsi6qGN9LOuTf_9utam_core8elements5frame5testss_34test_frame_element_has_correct_api
FNF:15
FNH:3
DA:21,0
DA:22,0
DA:23,0
DA:26,0
DA:27,0
DA:28,0
DA:49,0
DA:51,0
DA:56,0
DA:59,0
DA:61,0
DA:62,0
DA:109,0
DA:110,0
DA:111,0
DA:125,0
DA:129,0
DA:130,0
DA:131,0
DA:132,0
DA:136,0
DA:138,0
DA:147,0
DA:148,0
DA:149,0
DA:150,0
DA:151,0
DA:152,0
DA:153,0
DA:154,0
DA:162,1
DA:165,1
DA:168,1
DA:170,0
DA:174,0
DA:178,1
DA:181,1
DA:183,0
DA:187,0
DA:190,1
BRF:0
BRH:0
LF:44
LH:6
end_of_record
SF:/home/runner/work/busbar-sf-utam/busbar-sf-utam/utam-core/src/elements/rectangle.rs
FN:20,_RNvMNtNtCs7fkD3yuyRWF_9utam_core8elements9rectangleNtB2_16ElementRectangle3new
FN:26,_RNvXs_NtNtCs7fkD3yuyRWF_9utam_core8elements9rectangleNtB4_16ElementRectangleINtNtCslH02haMvknO_4core7convert4FromNtNtNtCsdIk8Ar2YATx_10thirtyfour6common5types11ElementRectE4from
FN:73,_RNvNtNtNtCsi6qGN9LOuTf_9utam_core8elements9rectangle5testss_27test_element_rectangle_copy
FN:65,_RNvNtNtNtCsi6qGN9LOuTf_9utam_core8elements9rectangle5testss_28test_element_rectangle_clone
FN:81,_RNvNtNtNtCsi6qGN9LOuTf_9utam_core8elements9rectangle5testss_28test_element_rectangle_debug
FN:36,_RNvNtNtNtCsi6qGN9LOuTf_9utam_core8elements9rectangle5testss_31test_element_rectangle_creation
FN:55,_RNvNtNtNtCsi6qGN9LOuTf_9utam_core8elements9rectangle5testss_31test_element_rectangle_equality
FN:45,_RNvNtNtNtCsi6qGN9LOuTf_9utam_core8elements9rectangle5testss_32test_element_rectangle_from_rect
FN:89,_RNvNtNtNtCsi6qGN9LOuTf_9utam_core8elements9rectangle5testss_38test_element_rectangle_zero_dimensions
FN:96,_RNvNtNtNtCsi6qGN9LOuTf_9utam_core8elements9rectangle5testss_43test_element_rectangle_negative_coordinates
FN:20,_RNvMNtNtCsi6qGN9LOuTf_9utam_core8elements9rectangleNtB2_16ElementRectangle3new
FN:26,_RNvXs_NtNtCsi6qGN9LOuTf_9utam_core8elements9rectangleNtB4_16ElementRectangleINtNtCslH02haMvknO_4core7convert4FromNtNtNtCsdIk8Ar2YATx_10thirtyfour6common5types11ElementRectE4from
FNDA:14,_RNvMNtNtCs7fkD3yuyRWF_9utam_core8elements9rectangleNtB2_16ElementRectangle3new
FNDA:1,_RNvXs_NtNtCs7fkD3yuyRWF_9utam_core8elements9rectangleNtB4_16ElementRectangleINtNtCslH02haMvknO_4core7convert4FromNtNtNtCsdIk8Ar2YATx_10thirtyfour6common5types11ElementRectE4from
FNDA:1,_RNvNtNtNtCsi6qGN9LOuTf_9utam_core8elements9rectangle5testss_27test_element_rectangle_copy
FNDA:1,_RNvNtNtNtCsi6qGN9LOuTf_9utam_core8elements9rectangle5testss_28test_element_rectangle_clone
FNDA:1,_RNvNtNtNtCsi6qGN9LOuTf_9utam_core8elements9rectangle5testss_28test_element_rectangle_debug
FNDA:1,_RNvNtNtNtCsi6qGN9LOuTf_9utam_core8elements9rectangle5testss_31test_element_rectangle_creation
FNDA:1,_RNvNtNtNtCsi6qGN9LOuTf_9utam_core8elements9rectangle5testss_31test_element_rectangle_equality
FNDA:1,_RNvNtNtNtCsi6qGN9LOuTf_9utam_core8elements9rectangle5testss_32test_element_rectangle_from_rect
FNDA:1,_RNvNtNtNtCsi6qGN9LOuTf_9utam_core8elements9rectangle5testss_38test_element_rectangle_zero_dimensions
FNDA:1,_RNvNtNtNtCsi6qGN9LOuTf_9utam_core8elements9rectangle5testss_43test_element_rectangle_negative_coordinates
FNDA:10,_RNvMNtNtCsi6qGN9LOuTf_9utam_core8elements9rectangleNtB2_16ElementRectangle3new
FNDA:1,_RNvXs_NtNtCsi6qGN9LOuTf_9utam_core8elements9rectangleNtB4_16ElementRectangleINtNtCslH02haMvknO_4core7convert4FromNtNtNtCsdIk8Ar2YATx_10thirtyfour6common5types11ElementRectE4from
FNF:10
FNH:10
DA:20,24
DA:21,24
DA:22,24
DA:26,2
DA:27,2
DA:28,2
DA:36,1
DA:37,1
DA:38,1
DA:39,1
DA:40,1
DA:41,1
DA:42,1
DA:45,1
DA:46,1
DA:47,1
DA:48,1
DA:49,1
DA:50,1
DA:51,1
DA:52,1
DA:55,1
DA:56,1
DA:57,1
DA:58,1
DA:60,1
DA:61,1
DA:62,1
DA:65,1
DA:66,1
DA:68,1
DA:69,1
DA:70,1
DA:73,1
DA:74,1
DA:75,1
DA:76,1
DA:77,1
DA:78,1
DA:81,1
DA:82,1
DA:83,1
DA:84,1
DA:85,1
DA:86,1
DA:89,1
DA:90,1
DA:91,1
DA:92,1
DA:93,1
DA:96,1
DA:97,1
DA:98,1
DA:99,1
DA:100,1
BRF:0
BRH:0
LF:55
LH:55
end_of_record
SF:/home/runner/work/busbar-sf-utam/busbar-sf-utam/utam-core/src/shadow.rs
FN:67,_RNCNCNvNtCsi6qGN9LOuTf_9utam_core6shadow20traverse_shadow_path00B7_
FN:72,_RNCNCNvNtCsi6qGN9LOuTf_9utam_core6shadow20traverse_shadow_path0s_0B7_
FN:63,_RNCNvNtCsi6qGN9LOuTf_9utam_core6shadow20traverse_shadow_path0B5_
FN:28,_RNCNCNvMNtCsi6qGN9LOuTf_9utam_core6shadowNtB6_10ShadowRoot4find00B8_
FN:26,_RNCNvMNtCsi6qGN9LOuTf_9utam_core6shadowNtB4_10ShadowRoot4find0B6_
FN:34,_RNCNvMNtCsi6qGN9LOuTf_9utam_core6shadowNtB4_10ShadowRoot8find_all0B6_
FN:17,_RNvMNtCsi6qGN9LOuTf_9utam_core6shadowNtB2_10ShadowRoot3new
FN:26,_RNvMNtCsi6qGN9LOuTf_9utam_core6shadowNtB2_10ShadowRoot4find
FN:34,_RNvMNtCsi6qGN9LOuTf_9utam_core6shadowNtB2_10ShadowRoot8find_all
FN:63,_RNvNtCsi6qGN9LOuTf_9utam_core6shadow20traverse_shadow_path
FNDA:0,_RNCNCNvNtCsi6qGN9LOuTf_9utam_core6shadow20traverse_shadow_path00B7_
FNDA:0,_RNCNCNvNtCsi6qGN9LOuTf_9utam_core6shadow20traverse_shadow_path0s_0B7_
FNDA:0,_RNCNvNtCsi6qGN9LOuTf_9utam_core6shadow20traverse_shadow_path0B5_
FNDA:0,_RNCNCNvMNtCsi6qGN9LOuTf_9utam_core6shadowNtB6_10ShadowRoot4find00B8_
FNDA:0,_RNCNvMNtCsi6qGN9LOuTf_9utam_core6shadowNtB4_10ShadowRoot4find0B6_
FNDA:0,_RNCNvMNtCsi6qGN9LOuTf_9utam_core6shadowNtB4_10ShadowRoot8find_all0B6_
FNDA:0,_RNvMNtCsi6qGN9LOuTf_9utam_core6shadowNtB2_10ShadowRoot3new
FNDA:0,_RNvMNtCsi6qGN9LOuTf_9utam_core6shadowNtB2_10ShadowRoot4find
FNDA:0,_RNvMNtCsi6qGN9LOuTf_9utam_core6shadowNtB2_10ShadowRoot8find_all
FNDA:0,_RNvNtCsi6qGN9LOuTf_9utam_core6shadow20traverse_shadow_path
FNF:10
FNH:0
DA:17,0
DA:18,0
DA:19,0
DA:26,0
DA:27,0
DA:28,0
DA:29,0
DA:30,0
DA:31,0
DA:34,0
DA:35,0
DA:36,0
DA:63,0
DA:64,0
DA:66,0
DA:67,0
DA:68,0
DA:69,0
DA:71,0
DA:72,0
DA:73,0
DA:74,0
DA:77,0
DA:78,0
BRF:0
BRH:0
LF:30
LH:0
end_of_record
SF:/home/runner/work/busbar-sf-utam/busbar-sf-utam/utam-core/src/traits/actionable.rs
FN:62,_RNvYpNtNtNtCsi6qGN9LOuTf_9utam_core6traits10actionable10Actionable13scroll_to_topB9_
FN:43,_RNvYpNtNtNtCsi6qGN9LOuTf_9utam_core6traits10actionable10Actionable16scroll_into_viewB9_
FN:50,_RNvYpNtNtNtCsi6qGN9LOuTf_9utam_core6traits10actionable10Actionable16scroll_to_centerB9_
FN:36,_RNvYpNtNtNtCsi6qGN9LOuTf_9utam_core6traits10actionable10Actionable4blurB9_
FN:30,_RNvYpNtNtNtCsi6qGN9LOuTf_9utam_core6traits10actionable10Actionable5focusB9_
FN:25,_RNvYpNtNtNtCsi6qGN9LOuTf_9utam_core6traits10actionable10Actionable6driverB9_
FN:74,_RNvYpNtNtNtCsi6qGN9LOuTf_9utam_core6traits10actionable10Actionable7move_toB9_
FNDA:0,_RNvYpNtNtNtCsi6qGN9LOuTf_9utam_core6traits10actionable10Actionable13scroll_to_topB9_
FNDA:0,_RNvYpNtNtNtCsi6qGN9LOuTf_9utam_core6traits10actionable10Actionable16scroll_into_viewB9_
FNDA:0,_RNvYpNtNtNtCsi6qGN9LOuTf_9utam_core6traits10actionable10Actionable16scroll_to_centerB9_
FNDA:0,_RNvYpNtNtNtCsi6qGN9LOuTf_9utam_core6traits10actionable10Actionable4blurB9_
FNDA:0,_RNvYpNtNtNtCsi6qGN9LOuTf_9utam_core6traits10actionable10Actionable5focusB9_
FNDA:0,_RNvYpNtNtNtCsi6qGN9LOuTf_9utam_core6traits10actionable10Actionable6driverB9_
FNDA:0,_RNvYpNtNtNtCsi6qGN9LOuTf_9utam_core6traits10actionable10Actionable7move_toB9_
FNF:7
FNH:0
DA:25,0
DA:26,0
DA:27,0
DA:30,0
DA:33,0
DA:36,0
DA:40,0
DA:43,0
DA:47,0
DA:50,0
DA:59,0
DA:62,0
DA:71,0
DA:74,0
DA:78,0
BRF:0
BRH:0
LF:15
LH:0
end_of_record
SF:/home/runner/work/busbar-sf-utam/busbar-sf-utam/utam-core/src/traits/clickable.rs
FN:30,_RNvYpNtNtNtCsi6qGN9LOuTf_9utam_core6traits9clickable9Clickable11right_clickB9_
FN:23,_RNvYpNtNtNtCsi6qGN9LOuTf_9utam_core6traits9clickable9Clickable12double_clickB9_
FN:37,_RNvYpNtNtNtCsi6qGN9LOuTf_9utam_core6traits9clickable9Clickable14click_and_holdB9_
FN:17,_RNvYpNtNtNtCsi6qGN9LOuTf_9utam_core6traits9clickable9Clickable5clickB9_
FNDA:0,_RNvYpNtNtNtCsi6qGN9LOuTf_9utam_core6traits9clickable9Clickable11right_clickB9_
FNDA:0,_RNvYpNtNtNtCsi6qGN9LOuTf_9utam_core6traits9clickable9Clickable12double_clickB9_
FNDA:0,_RNvYpNtNtNtCsi6qGN9LOuTf_9utam_core6traits9clickable9Clickable14click_and_holdB9_
FNDA:0,_RNvYpNtNtNtCsi6qGN9LOuTf_9utam_core6traits9clickable9Clickable5clickB9_
FNF:4
FNH:0
DA:17,0
DA:20,0
DA:23,0
DA:27,0
DA:30,0
DA:34,0
DA:37,0
DA:41,0
BRF:0
BRH:0
LF:8
LH:0
end_of_record
SF:/home/runner/work/busbar-sf-utam/busbar-sf-utam/utam-core/src/traits/draggable.rs
FN:20,_RNvYpNtNtNtCsi6qGN9LOuTf_9utam_core6traits9draggable9Draggable13drag_and_dropB9_
FN:48,_RNvYpNtNtNtCsi6qGN9LOuTf_9utam_core6traits9draggable9Draggable23drag_and_drop_by_offsetB9_
FN:39,_RNvYpNtNtNtCsi6qGN9LOuTf_9utam_core6traits9draggable9Draggable27drag_and_drop_with_durationB9_
FNDA:0,_RNvYpNtNtNtCsi6qGN9LOuTf_9utam_core6traits9draggable9Draggable13drag_and_dropB9_
FNDA:0,_RNvYpNtNtNtCsi6qGN9LOuTf_9utam_core6traits9draggable9Draggable23drag_and_drop_by_offsetB9_
FNDA:0,_RNvYpNtNtNtCsi6qGN9LOuTf_9utam_core6traits9draggable9Draggable27drag_and_drop_with_durationB9_
FNF:3
FNH:0
DA:20,0
DA:24,0
DA:39,0
DA:45,0
DA:48,0
DA:52,0
BRF:0
BRH:0
LF:6
LH:0
end_of_record
SF:/home/runner/work/busbar-sf-utam/busbar-sf-utam/utam-core/src/traits/editable.rs
FN:44,_RNvXNtNtCs7fkD3yuyRWF_9utam_core6traits8editableNtNtNtCsdIk8Ar2YATx_10thirtyfour6common4keys3KeyINtNtCslH02haMvknO_4core7convert4FromNtB2_3KeyE4from
FN:44,_RNvXNtNtCsi6qGN9LOuTf_9utam_core6traits8editableNtNtNtCsdIk8Ar2YATx_10thirtyfour6common4keys3KeyINtNtCslH02haMvknO_4core7convert4FromNtB2_3KeyE4from
FN:82,_RNvYpNtNtNtCsi6qGN9LOuTf_9utam_core6traits8editable8Editable14clear_and_typeB9_
FN:70,_RNvYpNtNtNtCsi6qGN9LOuTf_9utam_core6traits8editable8Editable5clearB9_
FN:89,_RNvYpNtNtNtCsi6qGN9LOuTf_9utam_core6traits8editable8Editable5pressB9_
FN:76,_RNvYpNtNtNtCsi6qGN9LOuTf_9utam_core6traits8editable8Editable8set_textB9_
FNDA:18,_RNvXNtNtCs7fkD3yuyRWF_9utam_core6traits8editableNtNtNtCsdIk8Ar2YATx_10thirtyfour6common4keys3KeyINtNtCslH02haMvknO_4core7convert4FromNtB2_3KeyE4from
FNDA:0,_RNvXNtNtCsi6qGN9LOuTf_9utam_core6traits8editableNtNtNtCsdIk8Ar2YATx_10thirtyfour6common4keys3KeyINtNtCslH02haMvknO_4core7convert4FromNtB2_3KeyE4from
FNDA:0,_RNvYpNtNtNtCsi6qGN9LOuTf_9utam_core6traits8editable8Editable14clear_and_typeB9_
FNDA:0,_RNvYpNtNtNtCsi6qGN9LOuTf_9utam_core6traits8editable8Editable5clearB9_
FNDA:0,_RNvYpNtNtNtCsi6qGN9LOuTf_9utam_core6traits8editable8Editable5pressB9_
FNDA:0,_RNvYpNtNtNtCsi6qGN9LOuTf_9utam_core6traits8editable8Editable8set_textB9_
FNF:5
FNH:1
DA:44,18
DA:45,18
DA:46,1
DA:47,1
DA:48,1
DA:49,1
DA:50,1
DA:51,2
DA:52,2
DA:53,2
DA:54,2
DA:55,1
DA:56,1
DA:57,1
DA:58,1
DA:59,1
DA:61,18
DA:70,0
DA:73,0
DA:76,0
DA:79,0
DA:82,0
DA:86,0
DA:89,0
DA:93,0
BRF:0
BRH:0
LF:25
LH:17
end_of_record
SF:/home/runner/work/busbar-sf-utam/busbar-sf-utam/utam-core/src/traits/page_object.rs
FN:53,_RNCNCNCNvYpNtNtNtCsi6qGN9LOuTf_9utam_core6traits11page_object14RootPageObject13wait_for_load000Bf_
FN:58,_RNCNCNvYpNtNtNtCsi6qGN9LOuTf_9utam_core6traits11page_object14RootPageObject13wait_for_load00Bd_
FN:49,_RNvYpNtNtNtCsi6qGN9LOuTf_9utam_core6traits11page_object14RootPageObject13wait_for_loadB9_
FNDA:0,_RNCNCNCNvYpNtNtNtCsi6qGN9LOuTf_9utam_core6traits11page_object14RootPageObject13wait_for_load000Bf_
FNDA:0,_RNCNCNvYpNtNtNtCsi6qGN9LOuTf_9utam_core6traits11page_object14RootPageObject13wait_for_load00Bd_
FNDA:0,_RNvYpNtNtNtCsi6qGN9LOuTf_9utam_core6traits11page_object14RootPageObject13wait_for_loadB9_
FNF:3
FNH:0
DA:49,0
DA:53,0
DA:54,0
DA:55,0
DA:56,0
DA:58,0
DA:63,0
BRF:0
BRH:0
LF:8
LH:0
end_of_record
SF:/home/runner/work/busbar-sf-utam/busbar-sf-utam/utam-core/src/wait.rs
FN:23,_RNvXNtCs7fkD3yuyRWF_9utam_core4waitNtB2_10WaitConfigNtNtCslH02haMvknO_4core7default7Default7default
FN:23,_RNvXNtCsi6qGN9LOuTf_9utam_core4waitNtB2_10WaitConfigNtNtCslH02haMvknO_4core7default7Default7default
FN:44,_RINvNtCsi6qGN9LOuTf_9utam_core4wait8wait_forNCNCNvNtB2_5testss_27test_wait_for_timeout_error00NCNCBI_00uEB4_
FN:44,_RINvNtCsi6qGN9LOuTf_9utam_core4wait8wait_forNCNCNvNtB2_5testss_31test_wait_for_immediate_success00NCNCBI_00lEB4_
FN:52,_RNCINvNtCsi6qGN9LOuTf_9utam_core4wait8wait_forNCNCNvNtB4_5testss_27test_wait_for_timeout_error00NCNCBK_00uE0B6_
FN:52,_RNCINvNtCsi6qGN9LOuTf_9utam_core4wait8wait_forNCNCNvNtB4_5testss_31test_wait_for_immediate_success00NCNCBK_00lE0B6_
FN:53,_RNCNCINvNtCsi6qGN9LOuTf_9utam_core4wait8wait_forNCNCNvNtB6_5testss_27test_wait_for_timeout_error00NCNCBM_00uE00B8_
FN:53,_RNCNCINvNtCsi6qGN9LOuTf_9utam_core4wait8wait_forNCNCNvNtB6_5testss_31test_wait_for_immediate_success00NCNCBM_00lE00B8_
FN:89,_RNvNtNtCsi6qGN9LOuTf_9utam_core4wait5testss_22test_wait_config_clone
FN:111,_RNvNtNtCsi6qGN9LOuTf_9utam_core4wait5testss_27test_wait_for_timeout_error
FN:82,_RNvNtNtCsi6qGN9LOuTf_9utam_core4wait5testss_31test_wait_config_default_values
FN:100,_RNvNtNtCsi6qGN9LOuTf_9utam_core4wait5testss_31test_wait_for_immediate_success
FN:118,_RNCNCNCNvNtNtCsi6qGN9LOuTf_9utam_core4wait5testss_27test_wait_for_timeout_error000Bb_
FN:106,_RNCNCNCNvNtNtCsi6qGN9LOuTf_9utam_core4wait5testss_31test_wait_for_immediate_success000Bb_
FN:118,_RNCNCNvNtNtCsi6qGN9LOuTf_9utam_core4wait5testss_27test_wait_for_timeout_error00B9_
FN:106,_RNCNCNvNtNtCsi6qGN9LOuTf_9utam_core4wait5testss_31test_wait_for_immediate_success00B9_
FN:111,_RNCNvNtNtCsi6qGN9LOuTf_9utam_core4wait5testss_27test_wait_for_timeout_error0B7_
FN:100,_RNCNvNtNtCsi6qGN9LOuTf_9utam_core4wait5testss_31test_wait_for_immediate_success0B7_
FNDA:1,_RNvXNtCs7fkD3yuyRWF_9utam_core4waitNtB2_10WaitConfigNtNtCslH02haMvknO_4core7default7Default7default
FNDA:1,_RNvXNtCsi6qGN9LOuTf_9utam_core4waitNtB2_10WaitConfigNtNtCslH02haMvknO_4core7default7Default7default
FNDA:1,_RINvNtCsi6qGN9LOuTf_9utam_core4wait8wait_forNCNCNvNtB2_5testss_27test_wait_for_timeout_error00NCNCBI_00uEB4_
FNDA:1,_RINvNtCsi6qGN9LOuTf_9utam_core4wait8wait_forNCNCNvNtB2_5testss_31test_wait_for_immediate_success00NCNCBI_00lEB4_
FNDA:1,_RNCINvNtCsi6qGN9LOuTf_9utam_core4wait8wait_forNCNCNvNtB4_5testss_27test_wait_for_timeout_error00NCNCBK_00uE0B6_
FNDA:1,_RNCINvNtCsi6qGN9LOuTf_9utam_core4wait8wait_forNCNCNvNtB4_5testss_31test_wait_for_immediate_success00NCNCBK_00lE0B6_
FNDA:1,_RNCNCINvNtCsi6qGN9LOuTf_9utam_core4wait8wait_forNCNCNvNtB6_5testss_27test_wait_for_timeout_error00NCNCBM_00uE00B8_
FNDA:1,_RNCNCINvNtCsi6qGN9LOuTf_9utam_core4wait8wait_forNCNCNvNtB6_5testss_31test_wait_for_immediate_success00NCNCBM_00lE00B8_
FNDA:1,_RNvNtNtCsi6qGN9LOuTf_9utam_core4wait5testss_22test_wait_config_clone
FNDA:1,_RNvNtNtCsi6qGN9LOuTf_9utam_core4wait5testss_27test_wait_for_timeout_error
FNDA:1,_RNvNtNtCsi6qGN9LOuTf_9utam_core4wait5testss_31test_wait_config_default_values
FNDA:1,_RNvNtNtCsi6qGN9LOuTf_9utam_core4wait5testss_31test_wait_for_immediate_success
FNDA:4,_RNCNCNCNvNtNtCsi6qGN9LOuTf_9utam_core4wait5testss_27test_wait_for_timeout_error000Bb_
FNDA:1,_RNCNCNCNvNtNtCsi6qGN9LOuTf_9utam_core4wait5testss_31test_wait_for_immediate_success000Bb_
FNDA:4,_RNCNCNvNtNtCsi6qGN9LOuTf_9utam_core4wait5testss_27test_wait_for_timeout_error00B9_
FNDA:1,_RNCNCNvNtNtCsi6qGN9LOuTf_9utam_core4wait5testss_31test_wait_for_immediate_success00B9_
FNDA:1,_RNCNvNtNtCsi6qGN9LOuTf_9utam_core4wait5testss_27test_wait_for_timeout_error0B7_
FNDA:1,_RNCNvNtNtCsi6qGN9LOuTf_9utam_core4wait5testss_31test_wait_for_immediate_success0B7_
FNF:14
FNH:14
DA:23,2
DA:24,2
DA:25,2
DA:44,2
DA:45,2
DA:46,2
DA:47,2
DA:48,2
DA:49,2
DA:50,2
DA:51,2
DA:52,2
DA:53,2
DA:55,5
DA:56,1
DA:58,4
DA:60,0
DA:62,0
DA:63,0
DA:67,1
DA:68,2
DA:70,1
DA:71,1
DA:72,0
DA:73,1
DA:75,2
DA:82,1
DA:83,1
DA:84,1
DA:85,1
DA:86,1
DA:89,1
DA:90,1
DA:91,1
DA:92,1
DA:93,1
DA:94,1
DA:95,1
DA:96,1
DA:97,1
DA:100,1
DA:101,1
DA:102,1
DA:103,1
DA:104,1
DA:106,2
DA:107,1
DA:108,1
DA:111,1
DA:112,1
DA:113,1
DA:114,1
DA:115,1
DA:117,1
DA:118,8
DA:120,1
DA:121,1
DA:122,1
DA:123,1
DA:124,1
DA:125,1
DA:126,1
BRF:0
BRH:0
LF:73
LH:66
end_of_record